; Function Attrs: mustprogress uwtable
define void @_ZN5arrow2io21FixedSizeBufferWriterC1ERKSt10shared_ptrINS_6BufferEE(ptr noundef nonnull align 8 dereferenceable(24) %this, ptr noundef nonnull align 8 dereferenceable(16) %buffer) unnamed_addr #4 align 2 personality ptr @__gxx_personality_v0 {
entry:
  %0 = getelementptr inbounds i8, ptr %this, i64 24
  %1 = getelementptr inbounds i8, ptr %this, i64 32
  tail call void @llvm.memset.p0.i64(ptr noundef nonnull align 8 dereferenceable(16) %1, i8 0, i64 16, i1 false)
  %mode_.i = getelementptr inbounds i8, ptr %this, i64 48
  store i32 0, ptr %mode_.i, align 8
  %2 = getelementptr inbounds i8, ptr %this, i64 8
  store ptr getelementptr inbounds ({ [13 x ptr], [5 x ptr], [15 x ptr] }, ptr @_ZTVN5arrow2io21FixedSizeBufferWriterE, i64 0, i32 0, i64 3), ptr %this, align 8
  store ptr getelementptr inbounds ({ [13 x ptr], [5 x ptr], [15 x ptr] }, ptr @_ZTVN5arrow2io21FixedSizeBufferWriterE, i64 0, i32 2, i64 8), ptr %0, align 8
  store ptr getelementptr inbounds ({ [13 x ptr], [5 x ptr], [15 x ptr] }, ptr @_ZTVN5arrow2io21FixedSizeBufferWriterE, i64 0, i32 1, i64 2), ptr %2, align 8
  %call = invoke noalias noundef nonnull dereferenceable(104) ptr @_Znwm(i64 noundef 104) #28
          to label %invoke.cont unwind label %lpad

invoke.cont:                                      ; preds = %entry
  invoke void @_ZN5arrow2io21FixedSizeBufferWriter25FixedSizeBufferWriterImplC2ERKSt10shared_ptrINS_6BufferEE(ptr noundef nonnull align 8 dereferenceable(104) %call, ptr noundef nonnull align 8 dereferenceable(16) %buffer)
          to label %invoke.cont4 unwind label %lpad3

invoke.cont4:                                     ; preds = %invoke.cont
  %impl_ = getelementptr inbounds i8, ptr %this, i64 16
  store ptr %call, ptr %impl_, align 8
  ret void

lpad:                                             ; preds = %entry
  %3 = landingpad { ptr, i32 }
          cleanup
  br label %ehcleanup

lpad3:                                            ; preds = %invoke.cont
  %4 = landingpad { ptr, i32 }
          cleanup
  tail call void @_ZdlPv(ptr noundef nonnull %call) #30
  br label %ehcleanup

ehcleanup:                                        ; preds = %lpad3, %lpad
  %.pn = phi { ptr, i32 } [ %4, %lpad3 ], [ %3, %lpad ]
  tail call void @_ZN5arrow2io13FileInterfaceD2Ev(ptr noundef nonnull align 8 dereferenceable(28) %0) #29
  resume { ptr, i32 } %.pn
}